target datalayout = "e-m:e-p270:32:32-p271:32:32-p272:64:64-i64:64-i128:128-f80:128-n8:16:32:64-S128"
target triple = "x86_64-pc-linux-gnu"

%"class.std::basic_string_view" = type { i64, ptr }

; Function Attrs: mustprogress nounwind uwtable
define linkonce_odr noundef zeroext i1 @_ZN13sentencepiece11string_util16IsValidCodepointEj(i32 noundef %0) #4 comdat {
  %2 = alloca i32, align 4
  store i32 %0, ptr %2, align 4
  %3 = load i32, ptr %2, align 4
  %4 = icmp ult i32 %3, 55296
  br i1 %4, label %13, label %5

5:                                                ; preds = %1
  %6 = load i32, ptr %2, align 4
  %7 = icmp uge i32 %6, 57344
  br i1 %7, label %8, label %11

8:                                                ; preds = %5
  %9 = load i32, ptr %2, align 4
  %10 = icmp ule i32 %9, 1114111
  br label %11

11:                                               ; preds = %8, %5
  %12 = phi i1 [ false, %5 ], [ %10, %8 ]
  br label %13

13:                                               ; preds = %11, %1
  %14 = phi i1 [ true, %1 ], [ %12, %11 ]
  ret i1 %14
}

; Function Attrs: mustprogress nounwind uwtable
define linkonce_odr noundef i64 @_ZNKSt17basic_string_viewIcSt11char_traitsIcEE4sizeEv(ptr noundef nonnull align 8 dereferenceable(16) %0) #4 comdat align 2 {
  %2 = alloca ptr, align 8
  store ptr %0, ptr %2, align 8
  %3 = load ptr, ptr %2, align 8
  %4 = getelementptr inbounds %"class.std::basic_string_view", ptr %3, i32 0, i32 0
  %5 = load i64, ptr %4, align 8
  ret i64 %5
}

; Function Attrs: mustprogress nounwind uwtable
define linkonce_odr noundef ptr @_ZNKSt17basic_string_viewIcSt11char_traitsIcEE4dataEv(ptr noundef nonnull align 8 dereferenceable(16) %0) #4 comdat align 2 {
  %2 = alloca ptr, align 8
  store ptr %0, ptr %2, align 8
  %3 = load ptr, ptr %2, align 8
  %4 = getelementptr inbounds %"class.std::basic_string_view", ptr %3, i32 0, i32 1
  %5 = load ptr, ptr %4, align 8
  ret ptr %5
}

; Function Attrs: mustprogress uwtable
define noundef zeroext i1 @_ZN13sentencepiece11string_util19IsStructurallyValidESt17basic_string_viewIcSt11char_traitsIcEE(i64 %0, ptr %1) #5 {
  %3 = alloca i1, align 1
  %4 = alloca %"class.std::basic_string_view", align 8
  %5 = alloca ptr, align 8
  %6 = alloca ptr, align 8
  %7 = alloca i64, align 8
  %8 = alloca i32, align 4
  %9 = getelementptr inbounds { i64, ptr }, ptr %4, i32 0, i32 0
  store i64 %0, ptr %9, align 8
  %10 = getelementptr inbounds { i64, ptr }, ptr %4, i32 0, i32 1
  store ptr %1, ptr %10, align 8
  %11 = call noundef ptr @_ZNKSt17basic_string_viewIcSt11char_traitsIcEE4dataEv(ptr noundef nonnull align 8 dereferenceable(16) %4) #3
  store ptr %11, ptr %5, align 8
  %12 = call noundef ptr @_ZNKSt17basic_string_viewIcSt11char_traitsIcEE4dataEv(ptr noundef nonnull align 8 dereferenceable(16) %4) #3
  %13 = call noundef i64 @_ZNKSt17basic_string_viewIcSt11char_traitsIcEE4sizeEv(ptr noundef nonnull align 8 dereferenceable(16) %4) #3
  %14 = getelementptr inbounds i8, ptr %12, i64 %13
  store ptr %14, ptr %6, align 8
  store i64 0, ptr %7, align 8
  br label %15

15:                                               ; preds = %33, %2
  %16 = load ptr, ptr %5, align 8
  %17 = load ptr, ptr %6, align 8
  %18 = icmp ult ptr %16, %17
  br i1 %18, label %19, label %37

19:                                               ; preds = %15
  %20 = load ptr, ptr %5, align 8
  %21 = load ptr, ptr %6, align 8
  %22 = call noundef i32 @_ZN13sentencepiece11string_util10DecodeUTF8EPKcS2_Pm(ptr noundef %20, ptr noundef %21, ptr noundef %7)
  store i32 %22, ptr %8, align 4
  %23 = load i32, ptr %8, align 4
  %24 = icmp eq i32 %23, 65533
  br i1 %24, label %25, label %29

25:                                               ; preds = %19
  %26 = load i64, ptr %7, align 8
  %27 = icmp ne i64 %26, 3
  br i1 %27, label %28, label %29

28:                                               ; preds = %25
  store i1 false, ptr %3, align 1
  br label %38

29:                                               ; preds = %25, %19
  %30 = load i32, ptr %8, align 4
  %31 = call noundef zeroext i1 @_ZN13sentencepiece11string_util16IsValidCodepointEj(i32 noundef %30)
  br i1 %31, label %33, label %32

32:                                               ; preds = %29
  store i1 false, ptr %3, align 1
  br label %38

33:                                               ; preds = %29
  %34 = load i64, ptr %7, align 8
  %35 = load ptr, ptr %5, align 8
  %36 = getelementptr inbounds i8, ptr %35, i64 %34
  store ptr %36, ptr %5, align 8
  br label %15, !llvm.loop !4

37:                                               ; preds = %15
  store i1 true, ptr %3, align 1
  br label %38

38:                                               ; preds = %37, %32, %28
  %39 = load i1, ptr %3, align 1
  ret i1 %39
}