; Function Attrs: mustprogress nofree norecurse nosync nounwind memory(readwrite, inaccessiblemem: none) uwtable
define noundef zeroext i1 @_ZN13sentencepiece11string_util19IsStructurallyValidESt17basic_string_viewIcSt11char_traitsIcEE(i64 %0, ptr %1) local_unnamed_addr #6 {
  %3 = alloca i64, align 8
  %4 = getelementptr inbounds i8, ptr %1, i64 %0
  store i64 0, ptr %3, align 8
  %5 = icmp slt i64 %0, 1
  br i1 %5, label %._crit_edge, label %.lr.ph

.lr.ph:                                           ; preds = %2, %15
  %.0811 = phi ptr [ %16, %15 ], [ %1, %2 ]
  %6 = call noundef i32 @_ZN13sentencepiece11string_util10DecodeUTF8EPKcS2_Pm(ptr noundef %.0811, ptr noundef nonnull %4, ptr noundef nonnull %3)
  %7 = icmp eq i32 %6, 65533
  %8 = load i64, ptr %3, align 8
  %9 = icmp ne i64 %8, 3
  %or.cond = select i1 %7, i1 %9, i1 false
  br i1 %or.cond, label %._crit_edge, label %10

10:                                               ; preds = %.lr.ph
  %11 = icmp ult i32 %6, 55296
  %12 = add nsw i32 %6, -57344
  %13 = icmp ult i32 %12, 1056768
  %14 = or i1 %11, %13
  br i1 %14, label %15, label %._crit_edge

15:                                               ; preds = %10
  %16 = getelementptr inbounds i8, ptr %.0811, i64 %8
  %.not = icmp ult ptr %16, %4
  br i1 %.not, label %.lr.ph, label %._crit_edge, !llvm.loop !4

._crit_edge:                                      ; preds = %.lr.ph, %10, %15, %2
  %.lcssa = phi i1 [ true, %2 ], [ true, %15 ], [ false, %10 ], [ false, %.lr.ph ]
  ret i1 %.lcssa
}